target datalayout = "e-m:e-p270:32:32-p271:32:32-p272:64:64-i64:64-i128:128-f80:128-n8:16:32:64-S128"
target triple = "x86_64-unknown-linux-gnu"

%"class.pugi::xml_node" = type { ptr }
%"struct.pugi::xml_node_struct" = type { i64, ptr, ptr, ptr, ptr, ptr, ptr, ptr }
%"class.pugi::xml_text" = type { ptr }

@.str.108 = private unnamed_addr constant [5 x i8] c"%.*g\00", align 1
@_ZN4pugi8xml_nodeC1EPNS_15xml_node_structE = unnamed_addr alias void (ptr, ptr), ptr @_ZN4pugi8xml_nodeC2EPNS_15xml_node_structE

; Function Attrs: mustprogress nounwind uwtable
define internal noundef zeroext i1 @_ZN4pugi4impl12_GLOBAL__N_112is_text_nodeEPNS_15xml_node_structE(ptr noundef %node) #0 {
entry:
  %node.addr = alloca ptr, align 8
  %type = alloca i32, align 4
  store ptr %node, ptr %node.addr, align 8
  %0 = load ptr, ptr %node.addr, align 8
  %header = getelementptr inbounds %"struct.pugi::xml_node_struct", ptr %0, i32 0, i32 0
  %1 = load i64, ptr %header, align 8
  %and = and i64 %1, 15
  %conv = trunc i64 %and to i32
  store i32 %conv, ptr %type, align 4
  %2 = load i32, ptr %type, align 4
  %cmp = icmp eq i32 %2, 3
  br i1 %cmp, label %lor.end, label %lor.rhs

lor.rhs:                                          ; preds = %entry
  %3 = load i32, ptr %type, align 4
  %cmp1 = icmp eq i32 %3, 4
  br label %lor.end

lor.end:                                          ; preds = %lor.rhs, %entry
  %4 = phi i1 [ true, %entry ], [ %cmp1, %lor.rhs ]
  ret i1 %4
}

; Function Attrs: mustprogress uwtable
define internal noundef zeroext i1 @_ZN4pugi4impl12_GLOBAL__N_115set_value_asciiIPcmEEbRT_RT0_mS3_(ptr noundef nonnull align 8 dereferenceable(8) %dest, ptr noundef nonnull align 8 dereferenceable(8) %header, i64 noundef %header_mask, ptr noundef %buf) #2 {
entry:
  %dest.addr = alloca ptr, align 8
  %header.addr = alloca ptr, align 8
  %header_mask.addr = alloca i64, align 8
  %buf.addr = alloca ptr, align 8
  store ptr %dest, ptr %dest.addr, align 8
  store ptr %header, ptr %header.addr, align 8
  store i64 %header_mask, ptr %header_mask.addr, align 8
  store ptr %buf, ptr %buf.addr, align 8
  %0 = load ptr, ptr %dest.addr, align 8
  %1 = load ptr, ptr %header.addr, align 8
  %2 = load i64, ptr %header_mask.addr, align 8
  %3 = load ptr, ptr %buf.addr, align 8
  %4 = load ptr, ptr %buf.addr, align 8
  %call = call i64 @strlen(ptr noundef %4) #15
  %call1 = call noundef zeroext i1 @_ZN4pugi4impl12_GLOBAL__N_113strcpy_insituIPcmEEbRT_RT0_mPKcm(ptr noundef nonnull align 8 dereferenceable(8) %0, ptr noundef nonnull align 8 dereferenceable(8) %1, i64 noundef %2, ptr noundef %3, i64 noundef %call)
  ret i1 %call1
}

; Function Attrs: mustprogress nounwind uwtable
define noundef ptr @_ZNK4pugi8xml_node15internal_objectEv(ptr noundef nonnull align 8 dereferenceable(8) %this) #0 align 2 {
entry:
  %this.addr = alloca ptr, align 8
  store ptr %this, ptr %this.addr, align 8
  %this1 = load ptr, ptr %this.addr, align 8
  %_root = getelementptr inbounds %"class.pugi::xml_node", ptr %this1, i32 0, i32 0
  %0 = load ptr, ptr %_root, align 8
  ret ptr %0
}

; Function Attrs: mustprogress uwtable
define noundef ptr @_ZNK4pugi8xml_text5_dataEv(ptr noundef nonnull align 8 dereferenceable(8) %this) #2 align 2 {
entry:
  %retval = alloca ptr, align 8
  %this.addr = alloca ptr, align 8
  %node = alloca ptr, align 8
  store ptr %this, ptr %this.addr, align 8
  %this1 = load ptr, ptr %this.addr, align 8
  %_root = getelementptr inbounds %"class.pugi::xml_text", ptr %this1, i32 0, i32 0
  %0 = load ptr, ptr %_root, align 8
  %tobool = icmp ne ptr %0, null
  br i1 %tobool, label %lor.lhs.false, label %if.then

lor.lhs.false:                                    ; preds = %entry
  %_root2 = getelementptr inbounds %"class.pugi::xml_text", ptr %this1, i32 0, i32 0
  %1 = load ptr, ptr %_root2, align 8
  %call = call noundef zeroext i1 @_ZN4pugi4impl12_GLOBAL__N_112is_text_nodeEPNS_15xml_node_structE(ptr noundef %1)
  br i1 %call, label %if.then, label %if.end

if.then:                                          ; preds = %lor.lhs.false, %entry
  %_root3 = getelementptr inbounds %"class.pugi::xml_text", ptr %this1, i32 0, i32 0
  %2 = load ptr, ptr %_root3, align 8
  store ptr %2, ptr %retval, align 8
  br label %return

if.end:                                           ; preds = %lor.lhs.false
  %_root4 = getelementptr inbounds %"class.pugi::xml_text", ptr %this1, i32 0, i32 0
  %3 = load ptr, ptr %_root4, align 8
  %header = getelementptr inbounds %"struct.pugi::xml_node_struct", ptr %3, i32 0, i32 0
  %4 = load i64, ptr %header, align 8
  %and = and i64 %4, 15
  %conv = trunc i64 %and to i32
  %cmp = icmp eq i32 %conv, 2
  br i1 %cmp, label %land.lhs.true, label %if.end9

land.lhs.true:                                    ; preds = %if.end
  %_root5 = getelementptr inbounds %"class.pugi::xml_text", ptr %this1, i32 0, i32 0
  %5 = load ptr, ptr %_root5, align 8
  %value = getelementptr inbounds %"struct.pugi::xml_node_struct", ptr %5, i32 0, i32 2
  %6 = load ptr, ptr %value, align 8
  %tobool6 = icmp ne ptr %6, null
  br i1 %tobool6, label %if.then7, label %if.end9

if.then7:                                         ; preds = %land.lhs.true
  %_root8 = getelementptr inbounds %"class.pugi::xml_text", ptr %this1, i32 0, i32 0
  %7 = load ptr, ptr %_root8, align 8
  store ptr %7, ptr %retval, align 8
  br label %return

if.end9:                                          ; preds = %land.lhs.true, %if.end
  %_root10 = getelementptr inbounds %"class.pugi::xml_text", ptr %this1, i32 0, i32 0
  %8 = load ptr, ptr %_root10, align 8
  %first_child = getelementptr inbounds %"struct.pugi::xml_node_struct", ptr %8, i32 0, i32 4
  %9 = load ptr, ptr %first_child, align 8
  store ptr %9, ptr %node, align 8
  br label %for.cond

for.cond:                                         ; preds = %for.inc, %if.end9
  %10 = load ptr, ptr %node, align 8
  %tobool11 = icmp ne ptr %10, null
  br i1 %tobool11, label %for.body, label %for.end

for.body:                                         ; preds = %for.cond
  %11 = load ptr, ptr %node, align 8
  %call12 = call noundef zeroext i1 @_ZN4pugi4impl12_GLOBAL__N_112is_text_nodeEPNS_15xml_node_structE(ptr noundef %11)
  br i1 %call12, label %if.then13, label %if.end14

if.then13:                                        ; preds = %for.body
  %12 = load ptr, ptr %node, align 8
  store ptr %12, ptr %retval, align 8
  br label %return

if.end14:                                         ; preds = %for.body
  br label %for.inc

for.inc:                                          ; preds = %if.end14
  %13 = load ptr, ptr %node, align 8
  %next_sibling = getelementptr inbounds %"struct.pugi::xml_node_struct", ptr %13, i32 0, i32 6
  %14 = load ptr, ptr %next_sibling, align 8
  store ptr %14, ptr %node, align 8
  br label %for.cond, !llvm.loop !35

for.end:                                          ; preds = %for.cond
  store ptr null, ptr %retval, align 8
  br label %return

return:                                           ; preds = %for.end, %if.then13, %if.then7, %if.then
  %15 = load ptr, ptr %retval, align 8
  ret ptr %15
}

; Function Attrs: mustprogress uwtable
define internal noundef zeroext i1 @_ZN4pugi4impl12_GLOBAL__N_117set_value_convertIPcmEEbRT_RT0_mdi(ptr noundef nonnull align 8 dereferenceable(8) %dest, ptr noundef nonnull align 8 dereferenceable(8) %header, i64 noundef %header_mask, double noundef %value, i32 noundef %precision) #2 {
entry:
  %dest.addr = alloca ptr, align 8
  %header.addr = alloca ptr, align 8
  %header_mask.addr = alloca i64, align 8
  %value.addr = alloca double, align 8
  %precision.addr = alloca i32, align 4
  %buf = alloca [128 x i8], align 16
  store ptr %dest, ptr %dest.addr, align 8
  store ptr %header, ptr %header.addr, align 8
  store i64 %header_mask, ptr %header_mask.addr, align 8
  store double %value, ptr %value.addr, align 8
  store i32 %precision, ptr %precision.addr, align 4
  %arraydecay = getelementptr inbounds [128 x i8], ptr %buf, i64 0, i64 0
  %0 = load i32, ptr %precision.addr, align 4
  %1 = load double, ptr %value.addr, align 8
  %call = call i32 (ptr, i64, ptr, ...) @snprintf(ptr noundef %arraydecay, i64 noundef 128, ptr noundef @.str.108, i32 noundef %0, double noundef %1) #9
  %2 = load ptr, ptr %dest.addr, align 8
  %3 = load ptr, ptr %header.addr, align 8
  %4 = load i64, ptr %header_mask.addr, align 8
  %arraydecay1 = getelementptr inbounds [128 x i8], ptr %buf, i64 0, i64 0
  %call2 = call noundef zeroext i1 @_ZN4pugi4impl12_GLOBAL__N_115set_value_asciiIPcmEEbRT_RT0_mS3_(ptr noundef nonnull align 8 dereferenceable(8) %2, ptr noundef nonnull align 8 dereferenceable(8) %3, i64 noundef %4, ptr noundef %arraydecay1)
  ret i1 %call2
}

; Function Attrs: mustprogress uwtable
define noundef ptr @_ZN4pugi8xml_text9_data_newEv(ptr noundef nonnull align 8 dereferenceable(8) %this) #2 align 2 {
entry:
  %retval = alloca ptr, align 8
  %this.addr = alloca ptr, align 8
  %d = alloca ptr, align 8
  %ref.tmp = alloca %"class.pugi::xml_node", align 8
  %ref.tmp2 = alloca %"class.pugi::xml_node", align 8
  store ptr %this, ptr %this.addr, align 8
  %this1 = load ptr, ptr %this.addr, align 8
  %call = call noundef ptr @_ZNK4pugi8xml_text5_dataEv(ptr noundef nonnull align 8 dereferenceable(8) %this1)
  store ptr %call, ptr %d, align 8
  %0 = load ptr, ptr %d, align 8
  %tobool = icmp ne ptr %0, null
  br i1 %tobool, label %if.then, label %if.end

if.then:                                          ; preds = %entry
  %1 = load ptr, ptr %d, align 8
  store ptr %1, ptr %retval, align 8
  br label %return

if.end:                                           ; preds = %entry
  %_root = getelementptr inbounds %"class.pugi::xml_text", ptr %this1, i32 0, i32 0
  %2 = load ptr, ptr %_root, align 8
  call void @_ZN4pugi8xml_nodeC1EPNS_15xml_node_structE(ptr noundef nonnull align 8 dereferenceable(8) %ref.tmp2, ptr noundef %2)
  %call3 = call ptr @_ZN4pugi8xml_node12append_childENS_13xml_node_typeE(ptr noundef nonnull align 8 dereferenceable(8) %ref.tmp2, i32 noundef 3)
  %coerce.dive = getelementptr inbounds %"class.pugi::xml_node", ptr %ref.tmp, i32 0, i32 0
  store ptr %call3, ptr %coerce.dive, align 8
  %call4 = call noundef ptr @_ZNK4pugi8xml_node15internal_objectEv(ptr noundef nonnull align 8 dereferenceable(8) %ref.tmp)
  store ptr %call4, ptr %retval, align 8
  br label %return

return:                                           ; preds = %if.end, %if.then
  %3 = load ptr, ptr %retval, align 8
  ret ptr %3
}

; Function Attrs: mustprogress uwtable
define noundef zeroext i1 @_ZN4pugi8xml_text3setEd(ptr noundef nonnull align 8 dereferenceable(8) %this, double noundef %rhs) #2 align 2 {
entry:
  %this.addr = alloca ptr, align 8
  %rhs.addr = alloca double, align 8
  %dn = alloca ptr, align 8
  store ptr %this, ptr %this.addr, align 8
  store double %rhs, ptr %rhs.addr, align 8
  %this1 = load ptr, ptr %this.addr, align 8
  %call = call noundef ptr @_ZN4pugi8xml_text9_data_newEv(ptr noundef nonnull align 8 dereferenceable(8) %this1)
  store ptr %call, ptr %dn, align 8
  %0 = load ptr, ptr %dn, align 8
  %tobool = icmp ne ptr %0, null
  br i1 %tobool, label %cond.true, label %cond.false

cond.true:                                        ; preds = %entry
  %1 = load ptr, ptr %dn, align 8
  %value = getelementptr inbounds %"struct.pugi::xml_node_struct", ptr %1, i32 0, i32 2
  %2 = load ptr, ptr %dn, align 8
  %header = getelementptr inbounds %"struct.pugi::xml_node_struct", ptr %2, i32 0, i32 0
  %3 = load double, ptr %rhs.addr, align 8
  %call2 = call noundef zeroext i1 @_ZN4pugi4impl12_GLOBAL__N_117set_value_convertIPcmEEbRT_RT0_mdi(ptr noundef nonnull align 8 dereferenceable(8) %value, ptr noundef nonnull align 8 dereferenceable(8) %header, i64 noundef 16, double noundef %3, i32 noundef 17)
  br label %cond.end

cond.false:                                       ; preds = %entry
  br label %cond.end

cond.end:                                         ; preds = %cond.false, %cond.true
  %cond = phi i1 [ %call2, %cond.true ], [ false, %cond.false ]
  ret i1 %cond
}